target datalayout = "e-m:e-p270:32:32-p271:32:32-p272:64:64-i64:64-i128:128-f80:128-n8:16:32:64-S128"
target triple = "x86_64-pc-linux-gnu"

%struct.jpeg_compress_struct = type { ptr, ptr, ptr, ptr, i32, i32, ptr, i32, i32, i32, i32, double, i32, i32, i32, ptr, [4 x ptr], [4 x ptr], [4 x ptr], [16 x i8], [16 x i8], [16 x i8], i32, ptr, i32, i32, i32, i32, i32, i32, i32, i32, i32, i8, i8, i8, i16, i16, i32, i32, i32, i32, i32, i32, i32, [4 x ptr], i32, i32, i32, [10 x i32], i32, i32, i32, i32, ptr, ptr, ptr, ptr, ptr, ptr, ptr, ptr, ptr, ptr, i32 }
%struct.jpeg_error_mgr = type { ptr, ptr, ptr, ptr, ptr, i32, %union.anon, i32, i64, ptr, i32, ptr, i32, i32 }
%union.anon = type { [8 x i32], [48 x i8] }
%struct.my_diff_controller = type { %struct.jpeg_c_coef_controller, i32, i32, i32, i32, [10 x ptr], [10 x ptr], [10 x ptr], [10 x ptr] }
%struct.jpeg_c_coef_controller = type { ptr, ptr, ptr, ptr }
%struct.jpeg_component_info = type { i32, i32, i32, i32, i32, i32, i32, i32, i32, i32, i32, i32, i32, i32, i32, i32, i32, i32, i32, ptr, ptr }
%struct.jpeg_forward_dct = type { ptr, ptr, ptr }

; Function Attrs: nounwind uwtable
define internal void @start_iMCU_row(ptr noundef %0) #0 {
  %2 = alloca ptr, align 8
  %3 = alloca ptr, align 8
  store ptr %0, ptr %2, align 8, !tbaa !3
  call void @llvm.lifetime.start.p0(i64 8, ptr %3) #5
  %4 = load ptr, ptr %2, align 8, !tbaa !3
  %5 = getelementptr inbounds nuw %struct.jpeg_compress_struct, ptr %4, i32 0, i32 57
  %6 = load ptr, ptr %5, align 8, !tbaa !38
  store ptr %6, ptr %3, align 8, !tbaa !37
  %7 = load ptr, ptr %2, align 8, !tbaa !3
  %8 = getelementptr inbounds nuw %struct.jpeg_compress_struct, ptr %7, i32 0, i32 44
  %9 = load i32, ptr %8, align 4, !tbaa !69
  %10 = icmp sgt i32 %9, 1
  br i1 %10, label %11, label %14

11:                                               ; preds = %1
  %12 = load ptr, ptr %3, align 8, !tbaa !37
  %13 = getelementptr inbounds nuw %struct.my_diff_controller, ptr %12, i32 0, i32 4
  store i32 1, ptr %13, align 4, !tbaa !70
  br label %42

14:                                               ; preds = %1
  %15 = load ptr, ptr %3, align 8, !tbaa !37
  %16 = getelementptr inbounds nuw %struct.my_diff_controller, ptr %15, i32 0, i32 1
  %17 = load i32, ptr %16, align 8, !tbaa !67
  %18 = load ptr, ptr %2, align 8, !tbaa !3
  %19 = getelementptr inbounds nuw %struct.jpeg_compress_struct, ptr %18, i32 0, i32 43
  %20 = load i32, ptr %19, align 8, !tbaa !71
  %21 = sub i32 %20, 1
  %22 = icmp ult i32 %17, %21
  br i1 %22, label %23, label %32

23:                                               ; preds = %14
  %24 = load ptr, ptr %2, align 8, !tbaa !3
  %25 = getelementptr inbounds nuw %struct.jpeg_compress_struct, ptr %24, i32 0, i32 45
  %26 = getelementptr inbounds [4 x ptr], ptr %25, i64 0, i64 0
  %27 = load ptr, ptr %26, align 8, !tbaa !37
  %28 = getelementptr inbounds nuw %struct.jpeg_component_info, ptr %27, i32 0, i32 3
  %29 = load i32, ptr %28, align 4, !tbaa !52
  %30 = load ptr, ptr %3, align 8, !tbaa !37
  %31 = getelementptr inbounds nuw %struct.my_diff_controller, ptr %30, i32 0, i32 4
  store i32 %29, ptr %31, align 4, !tbaa !70
  br label %41

32:                                               ; preds = %14
  %33 = load ptr, ptr %2, align 8, !tbaa !3
  %34 = getelementptr inbounds nuw %struct.jpeg_compress_struct, ptr %33, i32 0, i32 45
  %35 = getelementptr inbounds [4 x ptr], ptr %34, i64 0, i64 0
  %36 = load ptr, ptr %35, align 8, !tbaa !37
  %37 = getelementptr inbounds nuw %struct.jpeg_component_info, ptr %36, i32 0, i32 18
  %38 = load i32, ptr %37, align 8, !tbaa !72
  %39 = load ptr, ptr %3, align 8, !tbaa !37
  %40 = getelementptr inbounds nuw %struct.my_diff_controller, ptr %39, i32 0, i32 4
  store i32 %38, ptr %40, align 4, !tbaa !70
  br label %41

41:                                               ; preds = %32, %23
  br label %42

42:                                               ; preds = %41, %11
  %43 = load ptr, ptr %3, align 8, !tbaa !37
  %44 = getelementptr inbounds nuw %struct.my_diff_controller, ptr %43, i32 0, i32 2
  store i32 0, ptr %44, align 4, !tbaa !73
  %45 = load ptr, ptr %3, align 8, !tbaa !37
  %46 = getelementptr inbounds nuw %struct.my_diff_controller, ptr %45, i32 0, i32 3
  store i32 0, ptr %46, align 8, !tbaa !74
  call void @llvm.lifetime.end.p0(i64 8, ptr %3) #5
  ret void
}

; Function Attrs: nounwind uwtable
define internal void @start_pass_diff(ptr noundef %0, i32 noundef %1) #0 {
  %3 = alloca ptr, align 8
  %4 = alloca i32, align 4
  %5 = alloca ptr, align 8
  store ptr %0, ptr %3, align 8, !tbaa !3
  store i32 %1, ptr %4, align 4, !tbaa !8
  call void @llvm.lifetime.start.p0(i64 8, ptr %5) #5
  %6 = load ptr, ptr %3, align 8, !tbaa !3
  %7 = getelementptr inbounds nuw %struct.jpeg_compress_struct, ptr %6, i32 0, i32 57
  %8 = load ptr, ptr %7, align 8, !tbaa !38
  store ptr %8, ptr %5, align 8, !tbaa !37
  %9 = load i32, ptr %4, align 4, !tbaa !8
  %10 = icmp eq i32 %9, 2
  br i1 %10, label %11, label %18

11:                                               ; preds = %2
  %12 = load ptr, ptr %3, align 8, !tbaa !3
  %13 = getelementptr inbounds nuw %struct.jpeg_compress_struct, ptr %12, i32 0, i32 61
  %14 = load ptr, ptr %13, align 8, !tbaa !64
  %15 = getelementptr inbounds nuw %struct.jpeg_forward_dct, ptr %14, i32 0, i32 0
  %16 = load ptr, ptr %15, align 8, !tbaa !65
  %17 = load ptr, ptr %3, align 8, !tbaa !3
  call void %16(ptr noundef %17)
  br label %18

18:                                               ; preds = %11, %2
  %19 = load ptr, ptr %5, align 8, !tbaa !37
  %20 = getelementptr inbounds nuw %struct.my_diff_controller, ptr %19, i32 0, i32 1
  store i32 0, ptr %20, align 8, !tbaa !67
  %21 = load ptr, ptr %3, align 8, !tbaa !3
  call void @start_iMCU_row(ptr noundef %21)
  %22 = load i32, ptr %4, align 4, !tbaa !8
  switch i32 %22, label %86 [
    i32 0, label %23
    i32 3, label %44
    i32 2, label %65
  ]

23:                                               ; preds = %18
  %24 = load ptr, ptr %5, align 8, !tbaa !37
  %25 = getelementptr inbounds nuw %struct.my_diff_controller, ptr %24, i32 0, i32 8
  %26 = getelementptr inbounds [10 x ptr], ptr %25, i64 0, i64 0
  %27 = load ptr, ptr %26, align 8, !tbaa !61
  %28 = icmp ne ptr %27, null
  br i1 %28, label %29, label %40

29:                                               ; preds = %23
  %30 = load ptr, ptr %3, align 8, !tbaa !3
  %31 = getelementptr inbounds nuw %struct.jpeg_compress_struct, ptr %30, i32 0, i32 0
  %32 = load ptr, ptr %31, align 8, !tbaa !27
  %33 = getelementptr inbounds nuw %struct.jpeg_error_mgr, ptr %32, i32 0, i32 5
  store i32 4, ptr %33, align 8, !tbaa !28
  %34 = load ptr, ptr %3, align 8, !tbaa !3
  %35 = getelementptr inbounds nuw %struct.jpeg_compress_struct, ptr %34, i32 0, i32 0
  %36 = load ptr, ptr %35, align 8, !tbaa !27
  %37 = getelementptr inbounds nuw %struct.jpeg_error_mgr, ptr %36, i32 0, i32 0
  %38 = load ptr, ptr %37, align 8, !tbaa !33
  %39 = load ptr, ptr %3, align 8, !tbaa !3
  call void %38(ptr noundef %39)
  br label %40

40:                                               ; preds = %29, %23
  %41 = load ptr, ptr %5, align 8, !tbaa !37
  %42 = getelementptr inbounds nuw %struct.my_diff_controller, ptr %41, i32 0, i32 0
  %43 = getelementptr inbounds nuw %struct.jpeg_c_coef_controller, ptr %42, i32 0, i32 1
  store ptr @compress_data, ptr %43, align 8, !tbaa !68
  br label %97

44:                                               ; preds = %18
  %45 = load ptr, ptr %5, align 8, !tbaa !37
  %46 = getelementptr inbounds nuw %struct.my_diff_controller, ptr %45, i32 0, i32 8
  %47 = getelementptr inbounds [10 x ptr], ptr %46, i64 0, i64 0
  %48 = load ptr, ptr %47, align 8, !tbaa !61
  %49 = icmp eq ptr %48, null
  br i1 %49, label %50, label %61

50:                                               ; preds = %44
  %51 = load ptr, ptr %3, align 8, !tbaa !3
  %52 = getelementptr inbounds nuw %struct.jpeg_compress_struct, ptr %51, i32 0, i32 0
  %53 = load ptr, ptr %52, align 8, !tbaa !27
  %54 = getelementptr inbounds nuw %struct.jpeg_error_mgr, ptr %53, i32 0, i32 5
  store i32 4, ptr %54, align 8, !tbaa !28
  %55 = load ptr, ptr %3, align 8, !tbaa !3
  %56 = getelementptr inbounds nuw %struct.jpeg_compress_struct, ptr %55, i32 0, i32 0
  %57 = load ptr, ptr %56, align 8, !tbaa !27
  %58 = getelementptr inbounds nuw %struct.jpeg_error_mgr, ptr %57, i32 0, i32 0
  %59 = load ptr, ptr %58, align 8, !tbaa !33
  %60 = load ptr, ptr %3, align 8, !tbaa !3
  call void %59(ptr noundef %60)
  br label %61

61:                                               ; preds = %50, %44
  %62 = load ptr, ptr %5, align 8, !tbaa !37
  %63 = getelementptr inbounds nuw %struct.my_diff_controller, ptr %62, i32 0, i32 0
  %64 = getelementptr inbounds nuw %struct.jpeg_c_coef_controller, ptr %63, i32 0, i32 1
  store ptr @compress_first_pass, ptr %64, align 8, !tbaa !68
  br label %97

65:                                               ; preds = %18
  %66 = load ptr, ptr %5, align 8, !tbaa !37
  %67 = getelementptr inbounds nuw %struct.my_diff_controller, ptr %66, i32 0, i32 8
  %68 = getelementptr inbounds [10 x ptr], ptr %67, i64 0, i64 0
  %69 = load ptr, ptr %68, align 8, !tbaa !61
  %70 = icmp eq ptr %69, null
  br i1 %70, label %71, label %82

71:                                               ; preds = %65
  %72 = load ptr, ptr %3, align 8, !tbaa !3
  %73 = getelementptr inbounds nuw %struct.jpeg_compress_struct, ptr %72, i32 0, i32 0
  %74 = load ptr, ptr %73, align 8, !tbaa !27
  %75 = getelementptr inbounds nuw %struct.jpeg_error_mgr, ptr %74, i32 0, i32 5
  store i32 4, ptr %75, align 8, !tbaa !28
  %76 = load ptr, ptr %3, align 8, !tbaa !3
  %77 = getelementptr inbounds nuw %struct.jpeg_compress_struct, ptr %76, i32 0, i32 0
  %78 = load ptr, ptr %77, align 8, !tbaa !27
  %79 = getelementptr inbounds nuw %struct.jpeg_error_mgr, ptr %78, i32 0, i32 0
  %80 = load ptr, ptr %79, align 8, !tbaa !33
  %81 = load ptr, ptr %3, align 8, !tbaa !3
  call void %80(ptr noundef %81)
  br label %82

82:                                               ; preds = %71, %65
  %83 = load ptr, ptr %5, align 8, !tbaa !37
  %84 = getelementptr inbounds nuw %struct.my_diff_controller, ptr %83, i32 0, i32 0
  %85 = getelementptr inbounds nuw %struct.jpeg_c_coef_controller, ptr %84, i32 0, i32 1
  store ptr @compress_output, ptr %85, align 8, !tbaa !68
  br label %97

86:                                               ; preds = %18
  %87 = load ptr, ptr %3, align 8, !tbaa !3
  %88 = getelementptr inbounds nuw %struct.jpeg_compress_struct, ptr %87, i32 0, i32 0
  %89 = load ptr, ptr %88, align 8, !tbaa !27
  %90 = getelementptr inbounds nuw %struct.jpeg_error_mgr, ptr %89, i32 0, i32 5
  store i32 4, ptr %90, align 8, !tbaa !28
  %91 = load ptr, ptr %3, align 8, !tbaa !3
  %92 = getelementptr inbounds nuw %struct.jpeg_compress_struct, ptr %91, i32 0, i32 0
  %93 = load ptr, ptr %92, align 8, !tbaa !27
  %94 = getelementptr inbounds nuw %struct.jpeg_error_mgr, ptr %93, i32 0, i32 0
  %95 = load ptr, ptr %94, align 8, !tbaa !33
  %96 = load ptr, ptr %3, align 8, !tbaa !3
  call void %95(ptr noundef %96)
  br label %97

97:                                               ; preds = %86, %82, %61, %40
  call void @llvm.lifetime.end.p0(i64 8, ptr %5) #5
  ret void
}