; Function Attrs: nounwind uwtable
define internal void @start_pass_diff(ptr noundef %0, i32 noundef %1) #0 {
  %3 = getelementptr inbounds nuw i8, ptr %0, i64 456
  %4 = load ptr, ptr %3, align 8, !tbaa !34
  %5 = icmp eq i32 %1, 2
  br i1 %5, label %6, label %10

6:                                                ; preds = %2
  %7 = getelementptr inbounds nuw i8, ptr %0, i64 488
  %8 = load ptr, ptr %7, align 8, !tbaa !60
  %9 = load ptr, ptr %8, align 8, !tbaa !61
  tail call void %9(ptr noundef nonnull %0) #5
  %.pre = load ptr, ptr %3, align 8, !tbaa !34
  br label %10

10:                                               ; preds = %6, %2
  %11 = phi ptr [ %.pre, %6 ], [ %4, %2 ]
  %12 = getelementptr inbounds nuw i8, ptr %4, i64 32
  store i32 0, ptr %12, align 8, !tbaa !63
  %13 = getelementptr inbounds nuw i8, ptr %0, i64 324
  %14 = load i32, ptr %13, align 4, !tbaa !64
  %15 = icmp sgt i32 %14, 1
  br i1 %15, label %16, label %18

16:                                               ; preds = %10
  %17 = getelementptr inbounds nuw i8, ptr %11, i64 44
  store i32 1, ptr %17, align 4, !tbaa !65
  br label %start_iMCU_row.exit

18:                                               ; preds = %10
  %19 = getelementptr inbounds nuw i8, ptr %11, i64 32
  %20 = load i32, ptr %19, align 8, !tbaa !63
  %21 = getelementptr inbounds nuw i8, ptr %0, i64 320
  %22 = load i32, ptr %21, align 8, !tbaa !66
  %23 = add i32 %22, -1
  %24 = icmp ult i32 %20, %23
  %25 = getelementptr inbounds nuw i8, ptr %0, i64 328
  %26 = load ptr, ptr %25, align 8, !tbaa !67
  %27 = getelementptr inbounds nuw i8, ptr %11, i64 44
  br i1 %24, label %28, label %31

28:                                               ; preds = %18
  %29 = getelementptr inbounds nuw i8, ptr %26, i64 12
  %30 = load i32, ptr %29, align 4, !tbaa !48
  store i32 %30, ptr %27, align 4, !tbaa !65
  br label %start_iMCU_row.exit

31:                                               ; preds = %18
  %32 = getelementptr inbounds nuw i8, ptr %26, i64 72
  %33 = load i32, ptr %32, align 8, !tbaa !68
  store i32 %33, ptr %27, align 4, !tbaa !65
  br label %start_iMCU_row.exit

start_iMCU_row.exit:                              ; preds = %16, %28, %31
  %34 = getelementptr inbounds nuw i8, ptr %11, i64 36
  store i32 0, ptr %34, align 4, !tbaa !69
  %35 = getelementptr inbounds nuw i8, ptr %11, i64 40
  store i32 0, ptr %35, align 8, !tbaa !70
  switch i32 %1, label %65 [
    i32 0, label %36
    i32 3, label %45
    i32 2, label %55
  ]

36:                                               ; preds = %start_iMCU_row.exit
  %37 = getelementptr inbounds nuw i8, ptr %4, i64 288
  %38 = load ptr, ptr %37, align 8, !tbaa !57
  %.not = icmp eq ptr %38, null
  br i1 %.not, label %43, label %39

39:                                               ; preds = %36
  %40 = load ptr, ptr %0, align 8, !tbaa !24
  %41 = getelementptr inbounds nuw i8, ptr %40, i64 40
  store i32 4, ptr %41, align 8, !tbaa !25
  %42 = load ptr, ptr %40, align 8, !tbaa !30
  tail call void %42(ptr noundef nonnull %0) #5
  br label %43

43:                                               ; preds = %39, %36
  %44 = getelementptr inbounds nuw i8, ptr %4, i64 8
  store ptr @compress_data, ptr %44, align 8, !tbaa !71
  br label %69

45:                                               ; preds = %start_iMCU_row.exit
  %46 = getelementptr inbounds nuw i8, ptr %4, i64 288
  %47 = load ptr, ptr %46, align 8, !tbaa !57
  %48 = icmp eq ptr %47, null
  br i1 %48, label %49, label %53

49:                                               ; preds = %45
  %50 = load ptr, ptr %0, align 8, !tbaa !24
  %51 = getelementptr inbounds nuw i8, ptr %50, i64 40
  store i32 4, ptr %51, align 8, !tbaa !25
  %52 = load ptr, ptr %50, align 8, !tbaa !30
  tail call void %52(ptr noundef nonnull %0) #5
  br label %53

53:                                               ; preds = %49, %45
  %54 = getelementptr inbounds nuw i8, ptr %4, i64 8
  store ptr @compress_first_pass, ptr %54, align 8, !tbaa !71
  br label %69

55:                                               ; preds = %start_iMCU_row.exit
  %56 = getelementptr inbounds nuw i8, ptr %4, i64 288
  %57 = load ptr, ptr %56, align 8, !tbaa !57
  %58 = icmp eq ptr %57, null
  br i1 %58, label %59, label %63

59:                                               ; preds = %55
  %60 = load ptr, ptr %0, align 8, !tbaa !24
  %61 = getelementptr inbounds nuw i8, ptr %60, i64 40
  store i32 4, ptr %61, align 8, !tbaa !25
  %62 = load ptr, ptr %60, align 8, !tbaa !30
  tail call void %62(ptr noundef nonnull %0) #5
  br label %63

63:                                               ; preds = %59, %55
  %64 = getelementptr inbounds nuw i8, ptr %4, i64 8
  store ptr @compress_output, ptr %64, align 8, !tbaa !71
  br label %69

65:                                               ; preds = %start_iMCU_row.exit
  %66 = load ptr, ptr %0, align 8, !tbaa !24
  %67 = getelementptr inbounds nuw i8, ptr %66, i64 40
  store i32 4, ptr %67, align 8, !tbaa !25
  %68 = load ptr, ptr %66, align 8, !tbaa !30
  tail call void %68(ptr noundef nonnull %0) #5
  br label %69

69:                                               ; preds = %65, %63, %53, %43
  ret void
}